target datalayout = "e-m:e-p270:32:32-p271:32:32-p272:64:64-i64:64-i128:128-f80:128-n8:16:32:64-S128"
target triple = "x86_64-pc-linux-gnu"

%struct.nv = type { ptr, ptr }

; Function Attrs: nounwind uwtable
define internal ptr @cdf_app_to_mime(ptr noundef %0, ptr noundef %1) #0 {
  %3 = alloca ptr, align 8
  %4 = alloca ptr, align 8
  %5 = alloca i64, align 8
  %6 = alloca ptr, align 8
  %7 = alloca ptr, align 8
  %8 = alloca ptr, align 8
  %9 = alloca i32, align 4
  store ptr %0, ptr %3, align 8
  store ptr %1, ptr %4, align 8
  store ptr null, ptr %6, align 8
  %10 = load ptr, ptr %3, align 8
  %11 = load ptr, ptr %3, align 8
  %12 = call i64 @strlen(ptr noundef %11) #5
  %13 = call ptr @zend_str_tolower_dup(ptr noundef %10, i64 noundef %12)
  store ptr %13, ptr %7, align 8
  store i64 0, ptr %5, align 8
  br label %14

14:                                               ; preds = %49, %2
  %15 = load ptr, ptr %4, align 8
  %16 = load i64, ptr %5, align 8
  %17 = getelementptr inbounds %struct.nv, ptr %15, i64 %16
  %18 = getelementptr inbounds %struct.nv, ptr %17, i32 0, i32 0
  %19 = load ptr, ptr %18, align 8
  %20 = icmp ne ptr %19, null
  br i1 %20, label %21, label %52

21:                                               ; preds = %14
  %22 = load ptr, ptr %4, align 8
  %23 = load i64, ptr %5, align 8
  %24 = getelementptr inbounds %struct.nv, ptr %22, i64 %23
  %25 = getelementptr inbounds %struct.nv, ptr %24, i32 0, i32 0
  %26 = load ptr, ptr %25, align 8
  %27 = load ptr, ptr %4, align 8
  %28 = load i64, ptr %5, align 8
  %29 = getelementptr inbounds %struct.nv, ptr %27, i64 %28
  %30 = getelementptr inbounds %struct.nv, ptr %29, i32 0, i32 0
  %31 = load ptr, ptr %30, align 8
  %32 = call i64 @strlen(ptr noundef %31) #5
  %33 = call ptr @zend_str_tolower_dup(ptr noundef %26, i64 noundef %32)
  store ptr %33, ptr %8, align 8
  %34 = load ptr, ptr %7, align 8
  %35 = load ptr, ptr %8, align 8
  %36 = call ptr @strstr(ptr noundef %34, ptr noundef %35) #5
  %37 = icmp ne ptr %36, null
  %38 = zext i1 %37 to i32
  store i32 %38, ptr %9, align 4
  %39 = load ptr, ptr %8, align 8
  call void @_efree(ptr noundef %39)
  %40 = load i32, ptr %9, align 4
  %41 = icmp ne i32 %40, 0
  br i1 %41, label %42, label %48

42:                                               ; preds = %21
  %43 = load ptr, ptr %4, align 8
  %44 = load i64, ptr %5, align 8
  %45 = getelementptr inbounds %struct.nv, ptr %43, i64 %44
  %46 = getelementptr inbounds %struct.nv, ptr %45, i32 0, i32 1
  %47 = load ptr, ptr %46, align 8
  store ptr %47, ptr %6, align 8
  br label %52

48:                                               ; preds = %21
  br label %49

49:                                               ; preds = %48
  %50 = load i64, ptr %5, align 8
  %51 = add i64 %50, 1
  store i64 %51, ptr %5, align 8
  br label %14

52:                                               ; preds = %42, %14
  %53 = load ptr, ptr %7, align 8
  call void @_efree(ptr noundef %53)
  %54 = load ptr, ptr %6, align 8
  ret ptr %54
}