; Function Attrs: nounwind uwtable
define internal fastcc ptr @cdf_app_to_mime(ptr noundef %0, ptr nocapture noundef readonly %1) unnamed_addr #0 {
  %3 = tail call i64 @strlen(ptr noundef nonnull dereferenceable(1) %0) #10
  %4 = tail call ptr @zend_str_tolower_dup(ptr noundef %0, i64 noundef %3) #8
  %5 = load ptr, ptr %1, align 8
  %.not20 = icmp eq ptr %5, null
  br i1 %.not20, label %.loopexit, label %.lr.ph

6:                                                ; preds = %.lr.ph
  %7 = add i64 %.021, 1
  %8 = getelementptr inbounds %struct.nv, ptr %1, i64 %7
  %9 = load ptr, ptr %8, align 8
  %.not = icmp eq ptr %9, null
  br i1 %.not, label %.loopexit, label %.lr.ph

.lr.ph:                                           ; preds = %2, %6
  %10 = phi ptr [ %9, %6 ], [ %5, %2 ]
  %.021 = phi i64 [ %7, %6 ], [ 0, %2 ]
  %11 = tail call i64 @strlen(ptr noundef nonnull dereferenceable(1) %10) #10
  %12 = tail call ptr @zend_str_tolower_dup(ptr noundef nonnull %10, i64 noundef %11) #8
  %13 = tail call ptr @strstr(ptr noundef nonnull dereferenceable(1) %4, ptr noundef nonnull dereferenceable(1) %12) #10
  %.not18 = icmp eq ptr %13, null
  tail call void @_efree(ptr noundef %12) #8
  br i1 %.not18, label %6, label %14

14:                                               ; preds = %.lr.ph
  %15 = getelementptr inbounds %struct.nv, ptr %1, i64 %.021, i32 1
  %16 = load ptr, ptr %15, align 8
  br label %.loopexit

.loopexit:                                        ; preds = %6, %2, %14
  %.016 = phi ptr [ %16, %14 ], [ null, %2 ], [ null, %6 ]
  tail call void @_efree(ptr noundef %4) #8
  ret ptr %.016
}